; ModuleID = '58/106.c'
source_filename = "58/106.c"
target datalayout = "e-m:e-p270:32:32-p271:32:32-p272:64:64-i64:64-f80:128-n8:16:32:64-S128"
target triple = "x86_64-pc-linux-gnu"

@.str = private unnamed_addr constant [3 x i8] c"0\0A\00", align 1
@.str.1 = private unnamed_addr constant [3 x i8] c"1\0A\00", align 1

; Function Attrs: noinline nounwind uwtable
define dso_local i32 @main() #0 {
  %1 = alloca i32, align 4
  %2 = alloca i32, align 4
  %3 = alloca i32, align 4
  %4 = alloca i32, align 4
  %5 = alloca i32, align 4
  %6 = alloca i32, align 4
  %7 = alloca i32, align 4
  %8 = alloca i32, align 4
  %9 = alloca [100 x i8], align 16
  %10 = alloca [0 x i8], align 1
  store i32 0, i32* %1, align 4
  %11 = getelementptr inbounds [0 x i8], [0 x i8]* %10, i64 0, i64 0
  %12 = call i32 (i8*, ...) bitcast (i32 (...)* @gets to i32 (i8*, ...)*)(i8* %11)
  %13 = getelementptr inbounds [0 x i8], [0 x i8]* %10, i64 0, i64 0
  %14 = call i32 @atoi(i8* %13) #3
  store i32 %14, i32* %2, align 4
  store i32 1, i32* %3, align 4
  br label %15

15:                                               ; preds = %135, %0
  %16 = load i32, i32* %3, align 4
  %17 = load i32, i32* %2, align 4
  %18 = icmp sle i32 %16, %17
  br i1 %18, label %19, label %138

19:                                               ; preds = %15
  store i32 0, i32* %8, align 4
  br label %20

20:                                               ; preds = %27, %19
  %21 = load i32, i32* %8, align 4
  %22 = icmp slt i32 %21, 100
  br i1 %22, label %23, label %30

23:                                               ; preds = %20
  %24 = load i32, i32* %8, align 4
  %25 = sext i32 %24 to i64
  %26 = getelementptr inbounds [100 x i8], [100 x i8]* %9, i64 0, i64 %25
  store i8 0, i8* %26, align 1
  br label %27

27:                                               ; preds = %23
  %28 = load i32, i32* %8, align 4
  %29 = add nsw i32 %28, 1
  store i32 %29, i32* %8, align 4
  br label %20

30:                                               ; preds = %20
  store i32 0, i32* %7, align 4
  %31 = getelementptr inbounds [100 x i8], [100 x i8]* %9, i64 0, i64 0
  %32 = call i32 (i8*, ...) bitcast (i32 (...)* @gets to i32 (i8*, ...)*)(i8* %31)
  %33 = getelementptr inbounds [100 x i8], [100 x i8]* %9, i64 0, i64 0
  %34 = call i64 @strlen(i8* %33) #3
  %35 = trunc i64 %34 to i32
  store i32 %35, i32* %5, align 4
  %36 = getelementptr inbounds [100 x i8], [100 x i8]* %9, i64 0, i64 0
  %37 = load i8, i8* %36, align 16
  %38 = sext i8 %37 to i32
  %39 = icmp ne i32 %38, 95
  br i1 %39, label %40, label %62

40:                                               ; preds = %30
  %41 = getelementptr inbounds [100 x i8], [100 x i8]* %9, i64 0, i64 0
  %42 = load i8, i8* %41, align 16
  %43 = sext i8 %42 to i32
  %44 = icmp slt i32 %43, 65
  br i1 %44, label %60, label %45

45:                                               ; preds = %40
  %46 = getelementptr inbounds [100 x i8], [100 x i8]* %9, i64 0, i64 0
  %47 = load i8, i8* %46, align 16
  %48 = sext i8 %47 to i32
  %49 = icmp sgt i32 %48, 122
  br i1 %49, label %60, label %50

50:                                               ; preds = %45
  %51 = getelementptr inbounds [100 x i8], [100 x i8]* %9, i64 0, i64 0
  %52 = load i8, i8* %51, align 16
  %53 = sext i8 %52 to i32
  %54 = icmp sgt i32 %53, 90
  br i1 %54, label %55, label %62

55:                                               ; preds = %50
  %56 = getelementptr inbounds [100 x i8], [100 x i8]* %9, i64 0, i64 0
  %57 = load i8, i8* %56, align 16
  %58 = sext i8 %57 to i32
  %59 = icmp slt i32 %58, 97
  br i1 %59, label %60, label %62

60:                                               ; preds = %55, %45, %40
  %61 = call i32 (i8*, ...) @printf(i8* getelementptr inbounds ([3 x i8], [3 x i8]* @.str, i64 0, i64 0))
  br label %134

62:                                               ; preds = %55, %50, %30
  store i32 1, i32* %4, align 4
  br label %63

63:                                               ; preds = %121, %62
  %64 = load i32, i32* %4, align 4
  %65 = load i32, i32* %5, align 4
  %66 = icmp slt i32 %64, %65
  br i1 %66, label %67, label %124

67:                                               ; preds = %63
  %68 = load i32, i32* %4, align 4
  %69 = sext i32 %68 to i64
  %70 = getelementptr inbounds [100 x i8], [100 x i8]* %9, i64 0, i64 %69
  %71 = load i8, i8* %70, align 1
  %72 = sext i8 %71 to i32
  %73 = icmp sgt i32 %72, 47
  br i1 %73, label %74, label %81

74:                                               ; preds = %67
  %75 = load i32, i32* %4, align 4
  %76 = sext i32 %75 to i64
  %77 = getelementptr inbounds [100 x i8], [100 x i8]* %9, i64 0, i64 %76
  %78 = load i8, i8* %77, align 1
  %79 = sext i8 %78 to i32
  %80 = icmp slt i32 %79, 58
  br i1 %80, label %116, label %81

81:                                               ; preds = %74, %67
  %82 = load i32, i32* %4, align 4
  %83 = sext i32 %82 to i64
  %84 = getelementptr inbounds [100 x i8], [100 x i8]* %9, i64 0, i64 %83
  %85 = load i8, i8* %84, align 1
  %86 = sext i8 %85 to i32
  %87 = icmp sgt i32 %86, 64
  br i1 %87, label %88, label %95

88:                                               ; preds = %81
  %89 = load i32, i32* %4, align 4
  %90 = sext i32 %89 to i64
  %91 = getelementptr inbounds [100 x i8], [100 x i8]* %9, i64 0, i64 %90
  %92 = load i8, i8* %91, align 1
  %93 = sext i8 %92 to i32
  %94 = icmp slt i32 %93, 91
  br i1 %94, label %116, label %95

95:                                               ; preds = %88, %81
  %96 = load i32, i32* %4, align 4
  %97 = sext i32 %96 to i64
  %98 = getelementptr inbounds [100 x i8], [100 x i8]* %9, i64 0, i64 %97
  %99 = load i8, i8* %98, align 1
  %100 = sext i8 %99 to i32
  %101 = icmp sgt i32 %100, 96
  br i1 %101, label %102, label %109

102:                                              ; preds = %95
  %103 = load i32, i32* %4, align 4
  %104 = sext i32 %103 to i64
  %105 = getelementptr inbounds [100 x i8], [100 x i8]* %9, i64 0, i64 %104
  %106 = load i8, i8* %105, align 1
  %107 = sext i8 %106 to i32
  %108 = icmp slt i32 %107, 123
  br i1 %108, label %116, label %109

109:                                              ; preds = %102, %95
  %110 = load i32, i32* %4, align 4
  %111 = sext i32 %110 to i64
  %112 = getelementptr inbounds [100 x i8], [100 x i8]* %9, i64 0, i64 %111
  %113 = load i8, i8* %112, align 1
  %114 = sext i8 %113 to i32
  %115 = icmp eq i32 %114, 95
  br i1 %115, label %116, label %119

116:                                              ; preds = %109, %102, %88, %74
  %117 = load i32, i32* %7, align 4
  %118 = add nsw i32 %117, 1
  store i32 %118, i32* %7, align 4
  br label %120

119:                                              ; preds = %109
  br label %124

120:                                              ; preds = %116
  br label %121

121:                                              ; preds = %120
  %122 = load i32, i32* %4, align 4
  %123 = add nsw i32 %122, 1
  store i32 %123, i32* %4, align 4
  br label %63

124:                                              ; preds = %119, %63
  %125 = load i32, i32* %7, align 4
  %126 = load i32, i32* %5, align 4
  %127 = sub nsw i32 %126, 1
  %128 = icmp eq i32 %125, %127
  br i1 %128, label %129, label %131

129:                                              ; preds = %124
  %130 = call i32 (i8*, ...) @printf(i8* getelementptr inbounds ([3 x i8], [3 x i8]* @.str.1, i64 0, i64 0))
  br label %133

131:                                              ; preds = %124
  %132 = call i32 (i8*, ...) @printf(i8* getelementptr inbounds ([3 x i8], [3 x i8]* @.str, i64 0, i64 0))
  br label %133

133:                                              ; preds = %131, %129
  br label %134

134:                                              ; preds = %133, %60
  br label %135

135:                                              ; preds = %134
  %136 = load i32, i32* %3, align 4
  %137 = add nsw i32 %136, 1
  store i32 %137, i32* %3, align 4
  br label %15

138:                                              ; preds = %15
  %139 = call i32 @getchar()
  %140 = call i32 @getchar()
  %141 = call i32 @getchar()
  %142 = call i32 @getchar()
  %143 = load i32, i32* %1, align 4
  ret i32 %143
}

declare dso_local i32 @gets(...) #1

; Function Attrs: nounwind readonly
declare dso_local i32 @atoi(i8*) #2

; Function Attrs: nounwind readonly
declare dso_local i64 @strlen(i8*) #2

declare dso_local i32 @printf(i8*, ...) #1

declare dso_local i32 @getchar() #1


!llvm.module.flags = !{!0}
!llvm.ident = !{!1}

!0 = !{i32 1, !"wchar_size", i32 4}
!1 = !{!"clang version 10.0.0-4ubuntu1 "}
